; Function Attrs: nofree norecurse nosync nounwind memory(argmem: read) uwtable
define dso_local i64 @siphash(ptr noundef readonly captures(address) %0, i64 noundef %1, ptr noundef readonly captures(none) %2) local_unnamed_addr #1 {
  %4 = load i64, ptr %2, align 8, !tbaa !5
  %5 = getelementptr inbounds nuw i8, ptr %2, i64 8
  %6 = load i64, ptr %5, align 8, !tbaa !5
  %7 = getelementptr inbounds nuw i8, ptr %0, i64 %1
  %8 = and i64 %1, 7
  %9 = sub nsw i64 0, %8
  %10 = getelementptr inbounds i8, ptr %7, i64 %9
  %11 = trunc i64 %1 to i32
  %12 = and i32 %11, 7
  %13 = shl i64 %1, 56
  %14 = xor i64 %6, 8387220255154660723
  %15 = xor i64 %4, 7816392313619706465
  %16 = xor i64 %6, 7237128888997146477
  %17 = xor i64 %4, 8317987319222330741
  %.not164 = icmp eq ptr %0, %10
  br i1 %.not164, label %._crit_edge, label %.lr.ph

.lr.ph:                                           ; preds = %3, %.lr.ph
  %.0159169 = phi ptr [ %35, %.lr.ph ], [ %0, %3 ]
  %.0160168 = phi i64 [ %34, %.lr.ph ], [ %17, %3 ]
  %.0161167 = phi i64 [ %32, %.lr.ph ], [ %16, %3 ]
  %.0162166 = phi i64 [ %33, %.lr.ph ], [ %15, %3 ]
  %.0163165 = phi i64 [ %29, %.lr.ph ], [ %14, %3 ]
  %18 = load i64, ptr %.0159169, align 8, !tbaa !5
  %19 = xor i64 %18, %.0163165
  %20 = add i64 %.0160168, %.0161167
  %21 = tail call i64 @llvm.fshl.i64(i64 %.0161167, i64 %.0161167, i64 13)
  %22 = xor i64 %20, %21
  %23 = tail call i64 @llvm.fshl.i64(i64 %20, i64 %20, i64 32)
  %24 = add i64 %19, %.0162166
  %25 = tail call i64 @llvm.fshl.i64(i64 %19, i64 %19, i64 16)
  %26 = xor i64 %25, %24
  %27 = add i64 %26, %23
  %28 = tail call i64 @llvm.fshl.i64(i64 %26, i64 %26, i64 21)
  %29 = xor i64 %28, %27
  %30 = add i64 %24, %22
  %31 = tail call i64 @llvm.fshl.i64(i64 %22, i64 %22, i64 17)
  %32 = xor i64 %30, %31
  %33 = tail call i64 @llvm.fshl.i64(i64 %30, i64 %30, i64 32)
  %34 = xor i64 %27, %18
  %35 = getelementptr inbounds nuw i8, ptr %.0159169, i64 8
  %.not = icmp eq ptr %35, %10
  br i1 %.not, label %._crit_edge, label %.lr.ph, !llvm.loop !9

._crit_edge:                                      ; preds = %.lr.ph, %3
  %.0163.lcssa = phi i64 [ %14, %3 ], [ %29, %.lr.ph ]
  %.0162.lcssa = phi i64 [ %15, %3 ], [ %33, %.lr.ph ]
  %.0161.lcssa = phi i64 [ %16, %3 ], [ %32, %.lr.ph ]
  %.0160.lcssa = phi i64 [ %17, %3 ], [ %34, %.lr.ph ]
  %.0159.lcssa = phi ptr [ %0, %3 ], [ %10, %.lr.ph ]
  switch i32 %12, label %default.unreachable [
    i32 7, label %36
    i32 6, label %42
    i32 5, label %48
    i32 4, label %54
    i32 3, label %60
    i32 2, label %66
    i32 1, label %72
    i32 0, label %76
  ]

36:                                               ; preds = %._crit_edge
  %37 = getelementptr inbounds nuw i8, ptr %.0159.lcssa, i64 6
  %38 = load i8, ptr %37, align 1, !tbaa !11
  %39 = zext i8 %38 to i64
  %40 = shl nuw nsw i64 %39, 48
  %41 = or disjoint i64 %40, %13
  br label %42

42:                                               ; preds = %36, %._crit_edge
  %.1 = phi i64 [ %13, %._crit_edge ], [ %41, %36 ]
  %43 = getelementptr inbounds nuw i8, ptr %.0159.lcssa, i64 5
  %44 = load i8, ptr %43, align 1, !tbaa !11
  %45 = zext i8 %44 to i64
  %46 = shl nuw nsw i64 %45, 40
  %47 = or i64 %46, %.1
  br label %48

48:                                               ; preds = %42, %._crit_edge
  %.2 = phi i64 [ %13, %._crit_edge ], [ %47, %42 ]
  %49 = getelementptr inbounds nuw i8, ptr %.0159.lcssa, i64 4
  %50 = load i8, ptr %49, align 1, !tbaa !11
  %51 = zext i8 %50 to i64
  %52 = shl nuw nsw i64 %51, 32
  %53 = or i64 %52, %.2
  br label %54

54:                                               ; preds = %48, %._crit_edge
  %.3 = phi i64 [ %13, %._crit_edge ], [ %53, %48 ]
  %55 = getelementptr inbounds nuw i8, ptr %.0159.lcssa, i64 3
  %56 = load i8, ptr %55, align 1, !tbaa !11
  %57 = zext i8 %56 to i64
  %58 = shl nuw nsw i64 %57, 24
  %59 = or i64 %58, %.3
  br label %60

60:                                               ; preds = %54, %._crit_edge
  %.4 = phi i64 [ %13, %._crit_edge ], [ %59, %54 ]
  %61 = getelementptr inbounds nuw i8, ptr %.0159.lcssa, i64 2
  %62 = load i8, ptr %61, align 1, !tbaa !11
  %63 = zext i8 %62 to i64
  %64 = shl nuw nsw i64 %63, 16
  %65 = or i64 %64, %.4
  br label %66

66:                                               ; preds = %60, %._crit_edge
  %.5 = phi i64 [ %13, %._crit_edge ], [ %65, %60 ]
  %67 = getelementptr inbounds nuw i8, ptr %.0159.lcssa, i64 1
  %68 = load i8, ptr %67, align 1, !tbaa !11
  %69 = zext i8 %68 to i64
  %70 = shl nuw nsw i64 %69, 8
  %71 = or i64 %70, %.5
  br label %72

72:                                               ; preds = %66, %._crit_edge
  %.6 = phi i64 [ %13, %._crit_edge ], [ %71, %66 ]
  %73 = load i8, ptr %.0159.lcssa, align 1, !tbaa !11
  %74 = zext i8 %73 to i64
  %75 = or i64 %.6, %74
  br label %76

default.unreachable:                              ; preds = %._crit_edge
  unreachable

76:                                               ; preds = %._crit_edge, %72
  %.0 = phi i64 [ %13, %._crit_edge ], [ %75, %72 ]
  %77 = xor i64 %.0, %.0163.lcssa
  %78 = add i64 %.0160.lcssa, %.0161.lcssa
  %79 = tail call i64 @llvm.fshl.i64(i64 %.0161.lcssa, i64 %.0161.lcssa, i64 13)
  %80 = xor i64 %78, %79
  %81 = tail call i64 @llvm.fshl.i64(i64 %78, i64 %78, i64 32)
  %82 = add i64 %77, %.0162.lcssa
  %83 = tail call i64 @llvm.fshl.i64(i64 %77, i64 %77, i64 16)
  %84 = xor i64 %83, %82
  %85 = add i64 %84, %81
  %86 = tail call i64 @llvm.fshl.i64(i64 %84, i64 %84, i64 21)
  %87 = xor i64 %86, %85
  %88 = add i64 %82, %80
  %89 = tail call i64 @llvm.fshl.i64(i64 %80, i64 %80, i64 17)
  %90 = xor i64 %88, %89
  %91 = tail call i64 @llvm.fshl.i64(i64 %88, i64 %88, i64 32)
  %92 = xor i64 %85, %.0
  %93 = xor i64 %91, 255
  %94 = add i64 %92, %90
  %95 = tail call i64 @llvm.fshl.i64(i64 %90, i64 %90, i64 13)
  %96 = xor i64 %94, %95
  %97 = tail call i64 @llvm.fshl.i64(i64 %94, i64 %94, i64 32)
  %98 = add i64 %93, %87
  %99 = tail call i64 @llvm.fshl.i64(i64 %87, i64 %87, i64 16)
  %100 = xor i64 %99, %98
  %101 = add i64 %97, %100
  %102 = tail call i64 @llvm.fshl.i64(i64 %100, i64 %100, i64 21)
  %103 = xor i64 %102, %101
  %104 = add i64 %96, %98
  %105 = tail call i64 @llvm.fshl.i64(i64 %96, i64 %96, i64 17)
  %106 = xor i64 %105, %104
  %107 = tail call i64 @llvm.fshl.i64(i64 %104, i64 %104, i64 32)
  %108 = add i64 %106, %101
  %109 = tail call i64 @llvm.fshl.i64(i64 %106, i64 %106, i64 13)
  %110 = xor i64 %109, %108
  %111 = add i64 %107, %103
  %112 = tail call i64 @llvm.fshl.i64(i64 %103, i64 %103, i64 16)
  %113 = xor i64 %112, %111
  %114 = tail call i64 @llvm.fshl.i64(i64 %113, i64 %113, i64 21)
  %115 = add i64 %110, %111
  %116 = tail call i64 @llvm.fshl.i64(i64 %110, i64 %110, i64 17)
  %117 = tail call i64 @llvm.fshl.i64(i64 %115, i64 %115, i64 32)
  %118 = xor i64 %114, %116
  %119 = xor i64 %118, %117
  %120 = xor i64 %119, %115
  ret i64 %120
}